target datalayout = "e-m:e-p270:32:32-p271:32:32-p272:64:64-i64:64-i128:128-f80:128-n8:16:32:64-S128"
target triple = "x86_64-pc-linux-gnu"

%struct.XLogReaderState = type { %struct.XLogReaderRoutine, i64, ptr, i64, i64, i64, i64, i64, i64, i64, i64, ptr, ptr, i64, i8, ptr, ptr, ptr, ptr, ptr, i32, %struct.WALSegmentContext, %struct.WALOpenSegment, i32, i64, i32, i64, i32, i64, i32, ptr, i32, ptr, i8, i8 }
%struct.XLogReaderRoutine = type { ptr, ptr, ptr }
%struct.WALSegmentContext = type { [1024 x i8], i32 }
%struct.WALOpenSegment = type { i32, i64, i32 }
%struct.PageHeaderData = type { %struct.PageXLogRecPtr, i16, i16, i16, i16, i16, i16, i32, [0 x %struct.ItemIdData] }
%struct.PageXLogRecPtr = type { i32, i32 }
%struct.ItemIdData = type { i32 }
%struct.BTPageOpaqueData = type { i32, i32, i32, i16, i16 }
%struct.BTMetaPageData = type { i32, i32, i32, i32, i32, i32, i32, double, i8 }
%struct.xl_btree_metadata = type { i32, i32, i32, i32, i32, i32, i8 }

@LocalBufferBlockPointers = external global ptr, align 8
@BufferBlocks = external global ptr, align 8

; Function Attrs: inlinehint nounwind uwtable
define internal ptr @BufferGetBlock(i32 noundef %0) #2 {
  %2 = alloca ptr, align 8
  %3 = alloca i32, align 4
  store i32 %0, ptr %3, align 4
  %4 = load i32, ptr %3, align 4
  %5 = icmp slt i32 %4, 0
  br i1 %5, label %6, label %14

6:                                                ; preds = %1
  %7 = load ptr, ptr @LocalBufferBlockPointers, align 8
  %8 = load i32, ptr %3, align 4
  %9 = sub i32 0, %8
  %10 = sub i32 %9, 1
  %11 = sext i32 %10 to i64
  %12 = getelementptr inbounds ptr, ptr %7, i64 %11
  %13 = load ptr, ptr %12, align 8
  store ptr %13, ptr %2, align 8
  br label %21

14:                                               ; preds = %1
  %15 = load ptr, ptr @BufferBlocks, align 8
  %16 = load i32, ptr %3, align 4
  %17 = sub i32 %16, 1
  %18 = sext i32 %17 to i64
  %19 = mul i64 %18, 8192
  %20 = getelementptr inbounds nuw i8, ptr %15, i64 %19
  store ptr %20, ptr %2, align 8
  br label %21

21:                                               ; preds = %14, %6
  %22 = load ptr, ptr %2, align 8
  ret ptr %22
}

; Function Attrs: inlinehint nounwind uwtable
define internal void @PageSetLSN(ptr noundef %0, i64 noundef %1) #2 {
  %3 = alloca ptr, align 8
  %4 = alloca i64, align 8
  store ptr %0, ptr %3, align 8
  store i64 %1, ptr %4, align 8
  %5 = load i64, ptr %4, align 8
  %6 = lshr i64 %5, 32
  %7 = trunc i64 %6 to i32
  %8 = load ptr, ptr %3, align 8
  %9 = getelementptr inbounds nuw %struct.PageHeaderData, ptr %8, i32 0, i32 0
  %10 = getelementptr inbounds nuw %struct.PageXLogRecPtr, ptr %9, i32 0, i32 0
  store i32 %7, ptr %10, align 4
  %11 = load i64, ptr %4, align 8
  %12 = trunc i64 %11 to i32
  %13 = load ptr, ptr %3, align 8
  %14 = getelementptr inbounds nuw %struct.PageHeaderData, ptr %13, i32 0, i32 0
  %15 = getelementptr inbounds nuw %struct.PageXLogRecPtr, ptr %14, i32 0, i32 1
  store i32 %12, ptr %15, align 4
  ret void
}

; Function Attrs: inlinehint nounwind uwtable
define internal void @PageValidateSpecialPointer(ptr noundef %0) #2 {
  %2 = alloca ptr, align 8
  store ptr %0, ptr %2, align 8
  ret void
}

; Function Attrs: inlinehint nounwind uwtable
define internal ptr @PageGetContents(ptr noundef %0) #2 {
  %2 = alloca ptr, align 8
  store ptr %0, ptr %2, align 8
  %3 = load ptr, ptr %2, align 8
  %4 = getelementptr inbounds nuw i8, ptr %3, i64 24
  ret ptr %4
}

; Function Attrs: inlinehint nounwind uwtable
define internal i64 @BufferGetPageSize(i32 noundef %0) #2 {
  %2 = alloca i32, align 4
  store i32 %0, ptr %2, align 4
  ret i64 8192
}

; Function Attrs: inlinehint nounwind uwtable
define internal ptr @BufferGetPage(i32 noundef %0) #2 {
  %2 = alloca i32, align 4
  store i32 %0, ptr %2, align 4
  %3 = load i32, ptr %2, align 4
  %4 = call ptr @BufferGetBlock(i32 noundef %3)
  ret ptr %4
}

; Function Attrs: nounwind uwtable
define internal void @_bt_restore_meta(ptr noundef %0, i8 noundef zeroext %1) #0 {
  %3 = alloca ptr, align 8
  %4 = alloca i8, align 1
  %5 = alloca i64, align 8
  %6 = alloca i32, align 4
  %7 = alloca ptr, align 8
  %8 = alloca ptr, align 8
  %9 = alloca ptr, align 8
  %10 = alloca ptr, align 8
  %11 = alloca ptr, align 8
  %12 = alloca i64, align 8
  store ptr %0, ptr %3, align 8
  store i8 %1, ptr %4, align 1
  call void @llvm.lifetime.start.p0(i64 8, ptr %5) #7
  %13 = load ptr, ptr %3, align 8
  %14 = getelementptr inbounds nuw %struct.XLogReaderState, ptr %13, i32 0, i32 4
  %15 = load i64, ptr %14, align 8
  store i64 %15, ptr %5, align 8
  call void @llvm.lifetime.start.p0(i64 4, ptr %6) #7
  call void @llvm.lifetime.start.p0(i64 8, ptr %7) #7
  call void @llvm.lifetime.start.p0(i64 8, ptr %8) #7
  call void @llvm.lifetime.start.p0(i64 8, ptr %9) #7
  call void @llvm.lifetime.start.p0(i64 8, ptr %10) #7
  call void @llvm.lifetime.start.p0(i64 8, ptr %11) #7
  call void @llvm.lifetime.start.p0(i64 8, ptr %12) #7
  %16 = load ptr, ptr %3, align 8
  %17 = load i8, ptr %4, align 1
  %18 = call i32 @XLogInitBufferForRedo(ptr noundef %16, i8 noundef zeroext %17)
  store i32 %18, ptr %6, align 4
  %19 = load ptr, ptr %3, align 8
  %20 = load i8, ptr %4, align 1
  %21 = call ptr @XLogRecGetBlockData(ptr noundef %19, i8 noundef zeroext %20, ptr noundef %12)
  store ptr %21, ptr %11, align 8
  %22 = load ptr, ptr %11, align 8
  store ptr %22, ptr %10, align 8
  %23 = load i32, ptr %6, align 4
  %24 = call ptr @BufferGetPage(i32 noundef %23)
  store ptr %24, ptr %7, align 8
  %25 = load ptr, ptr %7, align 8
  %26 = load i32, ptr %6, align 4
  %27 = call i64 @BufferGetPageSize(i32 noundef %26)
  call void @_bt_pageinit(ptr noundef %25, i64 noundef %27)
  %28 = load ptr, ptr %7, align 8
  %29 = call ptr @PageGetContents(ptr noundef %28)
  store ptr %29, ptr %8, align 8
  %30 = load ptr, ptr %8, align 8
  %31 = getelementptr inbounds nuw %struct.BTMetaPageData, ptr %30, i32 0, i32 0
  store i32 340322, ptr %31, align 8
  %32 = load ptr, ptr %10, align 8
  %33 = getelementptr inbounds nuw %struct.xl_btree_metadata, ptr %32, i32 0, i32 0
  %34 = load i32, ptr %33, align 4
  %35 = load ptr, ptr %8, align 8
  %36 = getelementptr inbounds nuw %struct.BTMetaPageData, ptr %35, i32 0, i32 1
  store i32 %34, ptr %36, align 4
  %37 = load ptr, ptr %10, align 8
  %38 = getelementptr inbounds nuw %struct.xl_btree_metadata, ptr %37, i32 0, i32 1
  %39 = load i32, ptr %38, align 4
  %40 = load ptr, ptr %8, align 8
  %41 = getelementptr inbounds nuw %struct.BTMetaPageData, ptr %40, i32 0, i32 2
  store i32 %39, ptr %41, align 8
  %42 = load ptr, ptr %10, align 8
  %43 = getelementptr inbounds nuw %struct.xl_btree_metadata, ptr %42, i32 0, i32 2
  %44 = load i32, ptr %43, align 4
  %45 = load ptr, ptr %8, align 8
  %46 = getelementptr inbounds nuw %struct.BTMetaPageData, ptr %45, i32 0, i32 3
  store i32 %44, ptr %46, align 4
  %47 = load ptr, ptr %10, align 8
  %48 = getelementptr inbounds nuw %struct.xl_btree_metadata, ptr %47, i32 0, i32 3
  %49 = load i32, ptr %48, align 4
  %50 = load ptr, ptr %8, align 8
  %51 = getelementptr inbounds nuw %struct.BTMetaPageData, ptr %50, i32 0, i32 4
  store i32 %49, ptr %51, align 8
  %52 = load ptr, ptr %10, align 8
  %53 = getelementptr inbounds nuw %struct.xl_btree_metadata, ptr %52, i32 0, i32 4
  %54 = load i32, ptr %53, align 4
  %55 = load ptr, ptr %8, align 8
  %56 = getelementptr inbounds nuw %struct.BTMetaPageData, ptr %55, i32 0, i32 5
  store i32 %54, ptr %56, align 4
  %57 = load ptr, ptr %10, align 8
  %58 = getelementptr inbounds nuw %struct.xl_btree_metadata, ptr %57, i32 0, i32 5
  %59 = load i32, ptr %58, align 4
  %60 = load ptr, ptr %8, align 8
  %61 = getelementptr inbounds nuw %struct.BTMetaPageData, ptr %60, i32 0, i32 6
  store i32 %59, ptr %61, align 8
  %62 = load ptr, ptr %8, align 8
  %63 = getelementptr inbounds nuw %struct.BTMetaPageData, ptr %62, i32 0, i32 7
  store double -1.000000e+00, ptr %63, align 8
  %64 = load ptr, ptr %10, align 8
  %65 = getelementptr inbounds nuw %struct.xl_btree_metadata, ptr %64, i32 0, i32 6
  %66 = load i8, ptr %65, align 4, !range !4, !noundef !5
  %67 = trunc i8 %66 to i1
  %68 = load ptr, ptr %8, align 8
  %69 = getelementptr inbounds nuw %struct.BTMetaPageData, ptr %68, i32 0, i32 8
  %70 = zext i1 %67 to i8
  store i8 %70, ptr %69, align 8
  %71 = load ptr, ptr %7, align 8
  call void @PageValidateSpecialPointer(ptr noundef %71)
  %72 = load ptr, ptr %7, align 8
  %73 = load ptr, ptr %7, align 8
  %74 = getelementptr inbounds nuw %struct.PageHeaderData, ptr %73, i32 0, i32 5
  %75 = load i16, ptr %74, align 4
  %76 = zext i16 %75 to i32
  %77 = sext i32 %76 to i64
  %78 = getelementptr inbounds i8, ptr %72, i64 %77
  store ptr %78, ptr %9, align 8
  %79 = load ptr, ptr %9, align 8
  %80 = getelementptr inbounds nuw %struct.BTPageOpaqueData, ptr %79, i32 0, i32 3
  store i16 8, ptr %80, align 4
  %81 = load ptr, ptr %8, align 8
  %82 = getelementptr inbounds nuw i8, ptr %81, i64 48
  %83 = load ptr, ptr %7, align 8
  %84 = ptrtoint ptr %82 to i64
  %85 = ptrtoint ptr %83 to i64
  %86 = sub i64 %84, %85
  %87 = trunc i64 %86 to i16
  %88 = load ptr, ptr %7, align 8
  %89 = getelementptr inbounds nuw %struct.PageHeaderData, ptr %88, i32 0, i32 3
  store i16 %87, ptr %89, align 4
  %90 = load ptr, ptr %7, align 8
  %91 = load i64, ptr %5, align 8
  call void @PageSetLSN(ptr noundef %90, i64 noundef %91)
  %92 = load i32, ptr %6, align 4
  call void @MarkBufferDirty(i32 noundef %92)
  %93 = load i32, ptr %6, align 4
  call void @UnlockReleaseBuffer(i32 noundef %93)
  call void @llvm.lifetime.end.p0(i64 8, ptr %12) #7
  call void @llvm.lifetime.end.p0(i64 8, ptr %11) #7
  call void @llvm.lifetime.end.p0(i64 8, ptr %10) #7
  call void @llvm.lifetime.end.p0(i64 8, ptr %9) #7
  call void @llvm.lifetime.end.p0(i64 8, ptr %8) #7
  call void @llvm.lifetime.end.p0(i64 8, ptr %7) #7
  call void @llvm.lifetime.end.p0(i64 4, ptr %6) #7
  call void @llvm.lifetime.end.p0(i64 8, ptr %5) #7
  ret void
}