; Function Attrs: nounwind uwtable
define internal fastcc void @_bt_restore_meta(ptr noundef %0, i8 noundef zeroext range(i8 0, 5) %1) unnamed_addr #0 {
  %3 = alloca i64, align 8
  %4 = getelementptr inbounds nuw i8, ptr %0, i64 48
  %5 = load i64, ptr %4, align 8
  call void @llvm.lifetime.start.p0(i64 8, ptr nonnull %3) #7
  %6 = tail call i32 @XLogInitBufferForRedo(ptr noundef %0, i8 noundef zeroext %1) #7
  %7 = call ptr @XLogRecGetBlockData(ptr noundef %0, i8 noundef zeroext %1, ptr noundef nonnull %3) #7
  %8 = icmp slt i32 %6, 0
  br i1 %8, label %9, label %15

9:                                                ; preds = %2
  %10 = load ptr, ptr @LocalBufferBlockPointers, align 8
  %11 = xor i32 %6, -1
  %12 = zext nneg i32 %11 to i64
  %13 = getelementptr inbounds nuw ptr, ptr %10, i64 %12
  %14 = load ptr, ptr %13, align 8
  br label %BufferGetPage.exit

15:                                               ; preds = %2
  %16 = load ptr, ptr @BufferBlocks, align 8
  %17 = add nsw i32 %6, -1
  %18 = sext i32 %17 to i64
  %19 = shl nsw i64 %18, 13
  %20 = getelementptr inbounds nuw i8, ptr %16, i64 %19
  br label %BufferGetPage.exit

BufferGetPage.exit:                               ; preds = %9, %15
  %.0.i.i = phi ptr [ %14, %9 ], [ %20, %15 ]
  call void @_bt_pageinit(ptr noundef %.0.i.i, i64 noundef 8192) #7
  %21 = getelementptr inbounds nuw i8, ptr %.0.i.i, i64 24
  store i32 340322, ptr %21, align 8
  %22 = load i32, ptr %7, align 4
  %23 = getelementptr inbounds nuw i8, ptr %.0.i.i, i64 28
  store i32 %22, ptr %23, align 4
  %24 = getelementptr inbounds nuw i8, ptr %7, i64 4
  %25 = load i32, ptr %24, align 4
  %26 = getelementptr inbounds nuw i8, ptr %.0.i.i, i64 32
  store i32 %25, ptr %26, align 8
  %27 = getelementptr inbounds nuw i8, ptr %7, i64 8
  %28 = load i32, ptr %27, align 4
  %29 = getelementptr inbounds nuw i8, ptr %.0.i.i, i64 36
  store i32 %28, ptr %29, align 4
  %30 = getelementptr inbounds nuw i8, ptr %7, i64 12
  %31 = load i32, ptr %30, align 4
  %32 = getelementptr inbounds nuw i8, ptr %.0.i.i, i64 40
  store i32 %31, ptr %32, align 8
  %33 = getelementptr inbounds nuw i8, ptr %7, i64 16
  %34 = load i32, ptr %33, align 4
  %35 = getelementptr inbounds nuw i8, ptr %.0.i.i, i64 44
  store i32 %34, ptr %35, align 4
  %36 = getelementptr inbounds nuw i8, ptr %7, i64 20
  %37 = load i32, ptr %36, align 4
  %38 = getelementptr inbounds nuw i8, ptr %.0.i.i, i64 48
  store i32 %37, ptr %38, align 8
  %39 = getelementptr inbounds nuw i8, ptr %.0.i.i, i64 56
  store double -1.000000e+00, ptr %39, align 8
  %40 = getelementptr inbounds nuw i8, ptr %7, i64 24
  %41 = load i8, ptr %40, align 4, !range !6, !noundef !7
  %42 = getelementptr inbounds nuw i8, ptr %.0.i.i, i64 64
  store i8 %41, ptr %42, align 8
  %43 = getelementptr inbounds nuw i8, ptr %.0.i.i, i64 16
  %44 = load i16, ptr %43, align 4
  %45 = zext i16 %44 to i64
  %46 = getelementptr inbounds nuw i8, ptr %.0.i.i, i64 %45
  %47 = getelementptr inbounds nuw i8, ptr %46, i64 12
  store i16 8, ptr %47, align 4
  %48 = getelementptr inbounds nuw i8, ptr %.0.i.i, i64 12
  store i16 72, ptr %48, align 4
  %49 = lshr i64 %5, 32
  %50 = trunc nuw i64 %49 to i32
  store i32 %50, ptr %.0.i.i, align 4
  %51 = trunc i64 %5 to i32
  %52 = getelementptr inbounds nuw i8, ptr %.0.i.i, i64 4
  store i32 %51, ptr %52, align 4
  call void @MarkBufferDirty(i32 noundef %6) #7
  call void @UnlockReleaseBuffer(i32 noundef %6) #7
  call void @llvm.lifetime.end.p0(i64 8, ptr nonnull %3) #7
  ret void
}